target datalayout = "e-m:e-p270:32:32-p271:32:32-p272:64:64-i64:64-i128:128-f80:128-n8:16:32:64-S128"
target triple = "x86_64-pc-linux-gnu"

; Function Attrs: nounwind uwtable
define void @transpose32(ptr noundef %0) #0 {
  %2 = alloca ptr, align 8
  %3 = alloca i32, align 4
  %4 = alloca i32, align 4
  %5 = alloca i32, align 4
  %6 = alloca i32, align 4
  store ptr %0, ptr %2, align 8, !tbaa !74
  call void @llvm.lifetime.start.p0(i64 4, ptr %3) #11
  call void @llvm.lifetime.start.p0(i64 4, ptr %4) #11
  call void @llvm.lifetime.start.p0(i64 4, ptr %5) #11
  call void @llvm.lifetime.start.p0(i64 4, ptr %6) #11
  store i32 65535, ptr %6, align 4, !tbaa !24
  store i32 16, ptr %3, align 4, !tbaa !24
  br label %7

7:                                                ; preds = %69, %1
  %8 = load i32, ptr %3, align 4, !tbaa !24
  %9 = icmp ne i32 %8, 0
  br i1 %9, label %10, label %77

10:                                               ; preds = %7
  store i32 0, ptr %4, align 4, !tbaa !24
  br label %11

11:                                               ; preds = %60, %10
  %12 = load i32, ptr %4, align 4, !tbaa !24
  %13 = icmp slt i32 %12, 32
  br i1 %13, label %14, label %68

14:                                               ; preds = %11
  %15 = load ptr, ptr %2, align 8, !tbaa !74
  %16 = load i32, ptr %4, align 4, !tbaa !24
  %17 = sext i32 %16 to i64
  %18 = getelementptr inbounds i32, ptr %15, i64 %17
  %19 = load i32, ptr %18, align 4, !tbaa !24
  %20 = load ptr, ptr %2, align 8, !tbaa !74
  %21 = load i32, ptr %4, align 4, !tbaa !24
  %22 = load i32, ptr %3, align 4, !tbaa !24
  %23 = add nsw i32 %21, %22
  %24 = sext i32 %23 to i64
  %25 = getelementptr inbounds i32, ptr %20, i64 %24
  %26 = load i32, ptr %25, align 4, !tbaa !24
  %27 = load i32, ptr %3, align 4, !tbaa !24
  %28 = lshr i32 %26, %27
  %29 = xor i32 %19, %28
  %30 = load i32, ptr %6, align 4, !tbaa !24
  %31 = and i32 %29, %30
  store i32 %31, ptr %5, align 4, !tbaa !24
  %32 = load ptr, ptr %2, align 8, !tbaa !74
  %33 = load i32, ptr %4, align 4, !tbaa !24
  %34 = sext i32 %33 to i64
  %35 = getelementptr inbounds i32, ptr %32, i64 %34
  %36 = load i32, ptr %35, align 4, !tbaa !24
  %37 = load i32, ptr %5, align 4, !tbaa !24
  %38 = xor i32 %36, %37
  %39 = load ptr, ptr %2, align 8, !tbaa !74
  %40 = load i32, ptr %4, align 4, !tbaa !24
  %41 = sext i32 %40 to i64
  %42 = getelementptr inbounds i32, ptr %39, i64 %41
  store i32 %38, ptr %42, align 4, !tbaa !24
  %43 = load ptr, ptr %2, align 8, !tbaa !74
  %44 = load i32, ptr %4, align 4, !tbaa !24
  %45 = load i32, ptr %3, align 4, !tbaa !24
  %46 = add nsw i32 %44, %45
  %47 = sext i32 %46 to i64
  %48 = getelementptr inbounds i32, ptr %43, i64 %47
  %49 = load i32, ptr %48, align 4, !tbaa !24
  %50 = load i32, ptr %5, align 4, !tbaa !24
  %51 = load i32, ptr %3, align 4, !tbaa !24
  %52 = shl i32 %50, %51
  %53 = xor i32 %49, %52
  %54 = load ptr, ptr %2, align 8, !tbaa !74
  %55 = load i32, ptr %4, align 4, !tbaa !24
  %56 = load i32, ptr %3, align 4, !tbaa !24
  %57 = add nsw i32 %55, %56
  %58 = sext i32 %57 to i64
  %59 = getelementptr inbounds i32, ptr %54, i64 %58
  store i32 %53, ptr %59, align 4, !tbaa !24
  br label %60

60:                                               ; preds = %14
  %61 = load i32, ptr %4, align 4, !tbaa !24
  %62 = load i32, ptr %3, align 4, !tbaa !24
  %63 = add nsw i32 %61, %62
  %64 = add nsw i32 %63, 1
  %65 = load i32, ptr %3, align 4, !tbaa !24
  %66 = xor i32 %65, -1
  %67 = and i32 %64, %66
  store i32 %67, ptr %4, align 4, !tbaa !24
  br label %11, !llvm.loop !78

68:                                               ; preds = %11
  br label %69

69:                                               ; preds = %68
  %70 = load i32, ptr %3, align 4, !tbaa !24
  %71 = ashr i32 %70, 1
  store i32 %71, ptr %3, align 4, !tbaa !24
  %72 = load i32, ptr %6, align 4, !tbaa !24
  %73 = load i32, ptr %6, align 4, !tbaa !24
  %74 = load i32, ptr %3, align 4, !tbaa !24
  %75 = shl i32 %73, %74
  %76 = xor i32 %72, %75
  store i32 %76, ptr %6, align 4, !tbaa !24
  br label %7, !llvm.loop !79

77:                                               ; preds = %7
  call void @llvm.lifetime.end.p0(i64 4, ptr %6) #11
  call void @llvm.lifetime.end.p0(i64 4, ptr %5) #11
  call void @llvm.lifetime.end.p0(i64 4, ptr %4) #11
  call void @llvm.lifetime.end.p0(i64 4, ptr %3) #11
  ret void
}