; Function Attrs: nofree norecurse nosync nounwind memory(argmem: readwrite) uwtable
define void @transpose32(ptr noundef captures(none) %0) local_unnamed_addr #6 {
  br label %.preheader

.preheader:                                       ; preds = %1, %19
  %.032 = phi i32 [ 65535, %1 ], [ %22, %19 ]
  %.02831 = phi i32 [ 16, %1 ], [ %20, %19 ]
  %invariant.op = add nuw nsw i32 %.02831, 1
  %2 = xor i32 %.02831, -1
  br label %3

3:                                                ; preds = %.preheader, %3
  %.02930 = phi i32 [ 0, %.preheader ], [ %17, %3 ]
  %4 = sext i32 %.02930 to i64
  %5 = getelementptr inbounds i32, ptr %0, i64 %4
  %6 = load i32, ptr %5, align 4, !tbaa !45
  %7 = add nsw i32 %.02930, %.02831
  %8 = sext i32 %7 to i64
  %9 = getelementptr inbounds i32, ptr %0, i64 %8
  %10 = load i32, ptr %9, align 4, !tbaa !45
  %11 = lshr i32 %10, %.02831
  %12 = xor i32 %11, %6
  %13 = and i32 %12, %.032
  %14 = xor i32 %13, %6
  store i32 %14, ptr %5, align 4, !tbaa !45
  %15 = shl i32 %13, %.02831
  %16 = xor i32 %15, %10
  store i32 %16, ptr %9, align 4, !tbaa !45
  %.reass = add i32 %.02930, %invariant.op
  %17 = and i32 %.reass, %2
  %18 = icmp slt i32 %17, 32
  br i1 %18, label %3, label %19, !llvm.loop !61

19:                                               ; preds = %3
  %20 = lshr i32 %.02831, 1
  %21 = shl i32 %.032, %20
  %22 = xor i32 %21, %.032
  %.not = icmp samesign ult i32 %.02831, 2
  br i1 %.not, label %23, label %.preheader, !llvm.loop !62

23:                                               ; preds = %19
  ret void
}